; Function Attrs: mustprogress uwtable
define hidden void @_ZN12mpbq_manager9normalizeER4mpbq(ptr noundef nonnull readonly align 8 captures(none) dereferenceable(208) %0, ptr noundef nonnull align 8 dereferenceable(20) %1) local_unnamed_addr #3 align 2 {
  %3 = getelementptr inbounds nuw i8, ptr %1, i64 16
  %4 = load i32, ptr %3, align 8, !tbaa !13
  %5 = icmp eq i32 %4, 0
  br i1 %5, label %16, label %6

6:                                                ; preds = %2
  %7 = load i32, ptr %1, align 8, !tbaa !3
  %8 = icmp eq i32 %7, 0
  br i1 %8, label %.sink.split, label %9

9:                                                ; preds = %6
  %10 = load ptr, ptr %0, align 8, !tbaa !26
  %11 = tail call noundef i32 @_ZN11mpz_managerILb0EE21power_of_two_multipleERK3mpz(ptr noundef nonnull align 8 dereferenceable(600) %10, ptr noundef nonnull align 8 dereferenceable(16) %1)
  %12 = load i32, ptr %3, align 8, !tbaa !13
  %spec.select = tail call i32 @llvm.umin.i32(i32 %11, i32 %12)
  %13 = load ptr, ptr %0, align 8, !tbaa !26
  tail call void @_ZN11mpz_managerILb0EE13machine_div2kER3mpzj(ptr noundef nonnull align 8 dereferenceable(600) %13, ptr noundef nonnull align 8 dereferenceable(16) %1, i32 noundef %spec.select)
  %14 = load i32, ptr %3, align 8, !tbaa !13
  %15 = sub i32 %14, %spec.select
  br label %.sink.split

.sink.split:                                      ; preds = %6, %9
  %.sink = phi i32 [ %15, %9 ], [ 0, %6 ]
  store i32 %.sink, ptr %3, align 8, !tbaa !13
  br label %16

16:                                               ; preds = %.sink.split, %2
  ret void
}